; Function Attrs: mustprogress nounwind uwtable
define dso_local noundef nonnull ptr @_ZNK4llvm12DILocalScope13getSubprogramEv(ptr noundef nonnull align 8 dereferenceable(16) %0) local_unnamed_addr #0 align 2 {
  %2 = load i8, ptr %0, align 8
  %3 = add i8 %2, -21
  %spec.select.i.i.i.i.i.i.i.i5 = icmp ult i8 %3, -2
  br i1 %spec.select.i.i.i.i.i.i.i.i5, label %tailrecurse._crit_edge, label %.lr.ph

.lr.ph:                                           ; preds = %1, %_ZNK4llvm18DILexicalBlockBase8getScopeEv.exit
  %spec.select.i.i7 = phi ptr [ %17, %_ZNK4llvm18DILexicalBlockBase8getScopeEv.exit ], [ %0, %1 ]
  %4 = getelementptr inbounds i8, ptr %spec.select.i.i7, i64 -16
  %5 = load i64, ptr %4, align 8
  %6 = and i64 %5, 2
  %.not.i.i.i.i = icmp eq i64 %6, 0
  br i1 %.not.i.i.i.i, label %11, label %7

7:                                                ; preds = %.lr.ph
  %8 = getelementptr inbounds i8, ptr %spec.select.i.i7, i64 -32
  %9 = load ptr, ptr %8, align 8
  %10 = tail call noundef i64 @_ZNK4llvm15SmallVectorBaseIjE4sizeEv(ptr noundef nonnull align 8 dereferenceable(16) %8) #24
  br label %_ZNK4llvm18DILexicalBlockBase8getScopeEv.exit

11:                                               ; preds = %.lr.ph
  %12 = lshr i64 %5, 2
  %13 = and i64 %12, 15
  %14 = sub nsw i64 0, %13
  %15 = getelementptr inbounds %"class.llvm::MDOperand", ptr %4, i64 %14
  br label %_ZNK4llvm18DILexicalBlockBase8getScopeEv.exit

_ZNK4llvm18DILexicalBlockBase8getScopeEv.exit:    ; preds = %7, %11
  %.sroa.0.0.i.i.i.i = phi ptr [ %15, %11 ], [ %9, %7 ]
  %16 = getelementptr inbounds i8, ptr %.sroa.0.0.i.i.i.i, i64 8
  %17 = load ptr, ptr %16, align 8
  %18 = load i8, ptr %17, align 4
  %19 = add i8 %18, -21
  %spec.select.i.i.i.i.i.i.i.i = icmp ult i8 %19, -2
  br i1 %spec.select.i.i.i.i.i.i.i.i, label %tailrecurse._crit_edge, label %.lr.ph

tailrecurse._crit_edge:                           ; preds = %_ZNK4llvm18DILexicalBlockBase8getScopeEv.exit, %1
  %.tr.lcssa = phi ptr [ %0, %1 ], [ %17, %_ZNK4llvm18DILexicalBlockBase8getScopeEv.exit ]
  ret ptr %.tr.lcssa
}